; Function Attrs: nounwind uwtable
define internal i32 @test_CTX_set_get_certConf_cb_arg() #1 {
  %1 = tail call fastcc ptr @set_up(ptr noundef nonnull @.str.39)
  %2 = icmp eq ptr %1, null
  br i1 %2, label %49, label %3

3:                                                ; preds = %0
  %4 = getelementptr i8, ptr %1, i64 8
  %.val = load ptr, ptr %4, align 8, !tbaa !4
  %5 = tail call i64 @ERR_peek_error() #6
  %6 = trunc i64 %5 to i32
  %7 = tail call i32 @test_int_eq(ptr noundef nonnull @.str, i32 noundef 799, ptr noundef nonnull @.str.62, ptr noundef nonnull @.str.63, i32 noundef %6, i32 noundef 0) #6
  %8 = tail call i32 @OSSL_CMP_CTX_set_certConf_cb_arg(ptr noundef null, ptr noundef nonnull inttoptr (i64 1 to ptr)) #6
  %.not29.i = icmp eq i32 %8, 0
  br i1 %.not29.i, label %9, label %12

9:                                                ; preds = %3
  %.not.i = icmp ne i32 %7, 0
  %spec.select.i = zext i1 %.not.i to i32
  %10 = tail call i64 @ERR_peek_error() #6
  %11 = icmp eq i64 %10, 0
  br i1 %11, label %12, label %13

12:                                               ; preds = %9, %3
  tail call void (ptr, i32, ptr, ...) @test_error(ptr noundef nonnull @.str, i32 noundef 799, ptr noundef nonnull @.str.64) #6
  br label %13

13:                                               ; preds = %12, %9
  %.1.i = phi i32 [ 0, %12 ], [ %spec.select.i, %9 ]
  tail call void @ERR_clear_error() #6
  %14 = tail call ptr @OSSL_CMP_CTX_get_certConf_cb_arg(ptr noundef null) #6
  %.not30.i = icmp eq ptr %14, null
  br i1 %.not30.i, label %15, label %18

15:                                               ; preds = %13
  %16 = tail call i64 @ERR_peek_error() #6
  %17 = icmp eq i64 %16, 0
  br i1 %17, label %18, label %19

18:                                               ; preds = %15, %13
  tail call void (ptr, i32, ptr, ...) @test_error(ptr noundef nonnull @.str, i32 noundef 799, ptr noundef nonnull @.str.65) #6
  br label %19

19:                                               ; preds = %18, %15
  %.2.i = phi i32 [ 0, %18 ], [ %.1.i, %15 ]
  tail call void @ERR_clear_error() #6
  %20 = tail call ptr @OSSL_CMP_CTX_get_certConf_cb_arg(ptr noundef %.val) #6
  %21 = icmp eq ptr %20, null
  br i1 %21, label %23, label %22

22:                                               ; preds = %19
  tail call void (ptr, i32, ptr, ...) @test_error(ptr noundef nonnull @.str, i32 noundef 799, ptr noundef nonnull @.str.66) #6
  br label %23

23:                                               ; preds = %22, %19
  %.3.i = phi i32 [ %.2.i, %19 ], [ 0, %22 ]
  %24 = tail call i32 @OSSL_CMP_CTX_set_certConf_cb_arg(ptr noundef %.val, ptr noundef nonnull inttoptr (i64 1 to ptr)) #6
  %.not31.i = icmp eq i32 %24, 0
  br i1 %.not31.i, label %25, label %26

25:                                               ; preds = %23
  tail call void (ptr, i32, ptr, ...) @test_error(ptr noundef nonnull @.str, i32 noundef 799, ptr noundef nonnull @.str.67) #6
  br label %26

26:                                               ; preds = %25, %23
  %.4.i = phi i32 [ %.3.i, %23 ], [ 0, %25 ]
  %27 = tail call ptr @OSSL_CMP_CTX_get_certConf_cb_arg(ptr noundef %.val) #6
  %.not32.i = icmp eq ptr %27, inttoptr (i64 1 to ptr)
  br i1 %.not32.i, label %29, label %28

28:                                               ; preds = %26
  tail call void (ptr, i32, ptr, ...) @test_error(ptr noundef nonnull @.str, i32 noundef 799, ptr noundef nonnull @.str.68) #6
  br label %29

29:                                               ; preds = %28, %26
  %.5.i = phi i32 [ 0, %28 ], [ %.4.i, %26 ]
  %30 = tail call i32 @OSSL_CMP_CTX_set_certConf_cb_arg(ptr noundef %.val, ptr noundef nonnull inttoptr (i64 1 to ptr)) #6
  %.not33.i = icmp eq i32 %30, 0
  br i1 %.not33.i, label %31, label %32

31:                                               ; preds = %29
  tail call void (ptr, i32, ptr, ...) @test_error(ptr noundef nonnull @.str, i32 noundef 799, ptr noundef nonnull @.str.69) #6
  br label %32

32:                                               ; preds = %31, %29
  %.6.i = phi i32 [ %.5.i, %29 ], [ 0, %31 ]
  %33 = tail call ptr @OSSL_CMP_CTX_get_certConf_cb_arg(ptr noundef %.val) #6
  %magicptr.i = ptrtoint ptr %33 to i64
  switch i64 %magicptr.i, label %34 [
    i64 0, label %.thread.i
    i64 1, label %35
  ]

.thread.i:                                        ; preds = %32
  tail call void (ptr, i32, ptr, ...) @test_error(ptr noundef nonnull @.str, i32 noundef 799, ptr noundef nonnull @.str.70) #6
  br label %34

34:                                               ; preds = %.thread.i, %32
  tail call void (ptr, i32, ptr, ...) @test_error(ptr noundef nonnull @.str, i32 noundef 799, ptr noundef nonnull @.str.71) #6
  br label %35

35:                                               ; preds = %34, %32
  %.8.i = phi i32 [ 0, %34 ], [ %.6.i, %32 ]
  %36 = tail call ptr @OSSL_CMP_CTX_get_certConf_cb_arg(ptr noundef %.val) #6
  %37 = icmp eq ptr %36, null
  br i1 %37, label %38, label %39

38:                                               ; preds = %35
  tail call void (ptr, i32, ptr, ...) @test_error(ptr noundef nonnull @.str, i32 noundef 799, ptr noundef nonnull @.str.72) #6
  br label %39

39:                                               ; preds = %38, %35
  %.9.i = phi i32 [ 0, %38 ], [ %.8.i, %35 ]
  %.not35.i = icmp eq ptr %36, %33
  br i1 %.not35.i, label %tear_down.exit, label %40

40:                                               ; preds = %39
  tail call void (ptr, i32, ptr, ...) @test_error(ptr noundef nonnull @.str, i32 noundef 799, ptr noundef nonnull @.str.73) #6
  br label %tear_down.exit

tear_down.exit:                                   ; preds = %39, %40
  %.10.i = phi i32 [ 0, %40 ], [ %.9.i, %39 ]
  %41 = tail call i64 @ERR_peek_error() #6
  %42 = trunc i64 %41 to i32
  %43 = tail call i32 @test_int_eq(ptr noundef nonnull @.str, i32 noundef 799, ptr noundef nonnull @.str.62, ptr noundef nonnull @.str.63, i32 noundef %42, i32 noundef 0) #6
  %.not36.i = icmp ne i32 %43, 0
  %44 = icmp ne i32 %.10.i, 0
  %45 = select i1 %.not36.i, i1 %44, i1 false
  %46 = zext i1 %45 to i32
  %47 = tail call i32 @test_true(ptr noundef nonnull @.str, i32 noundef 799, ptr noundef nonnull @.str.74, i32 noundef %46) #6
  %48 = load ptr, ptr %4, align 8, !tbaa !4
  tail call void @OSSL_CMP_CTX_free(ptr noundef %48) #6
  tail call void @CRYPTO_free(ptr noundef nonnull %1, ptr noundef nonnull @.str, i32 noundef 25) #6
  br label %49

49:                                               ; preds = %0, %tear_down.exit
  %.05 = phi i32 [ %47, %tear_down.exit ], [ 0, %0 ]
  ret i32 %.05
}